target datalayout = "e-m:e-p270:32:32-p271:32:32-p272:64:64-i64:64-i128:128-f80:128-n8:16:32:64-S128"
target triple = "x86_64-pc-linux-gnu"

%struct.GVJ_s = type { ptr, ptr, ptr, ptr, ptr, ptr, i32, ptr, ptr, ptr, ptr, i64, i64, ptr, i32, %struct.gvplugin_active_render_s, %struct.gvplugin_active_device_s, %struct.gvplugin_active_loadimage_t, ptr, %struct.pointf_s, i8, ptr, i32, ptr, i8, ptr, i32, i32, i32, %struct.point, %struct.point, %struct.point, %struct.point, %struct.point, i32, %struct.boxf, %struct.pointf_s, %struct.boxf, %struct.boxf, %struct.pointf_s, %struct.pointf_s, double, i32, %struct.pointf_s, %struct.boxf, %struct.pointf_s, %struct.pointf_s, i32, i32, %struct.box, %struct.box, %struct.pointf_s, %struct.pointf_s, %struct.pointf_s, i8, i8, i8, i8, i8, i8, %struct.pointf_s, %struct.pointf_s, ptr, ptr, ptr, ptr, ptr, ptr, i64, ptr }
%struct.gvplugin_active_render_s = type { ptr, i32, ptr, ptr }
%struct.gvplugin_active_device_s = type { ptr, i32, ptr, ptr }
%struct.gvplugin_active_loadimage_t = type { ptr, i32, ptr }
%struct.point = type { i32, i32 }
%struct.boxf = type { %struct.pointf_s, %struct.pointf_s }
%struct.box = type { %struct.point, %struct.point }
%struct.pointf_s = type { double, double }
%struct.gvrender_features_t = type { i32, double, ptr, i32, i32 }

; Function Attrs: nounwind uwtable
define i32 @gvrender_features(ptr noundef %0) #0 {
  %2 = alloca ptr, align 8
  %3 = alloca ptr, align 8
  %4 = alloca i32, align 4
  store ptr %0, ptr %2, align 8, !tbaa !3
  call void @llvm.lifetime.start.p0(i64 8, ptr %3) #15
  %5 = load ptr, ptr %2, align 8, !tbaa !3
  %6 = getelementptr inbounds nuw %struct.GVJ_s, ptr %5, i32 0, i32 15
  %7 = getelementptr inbounds nuw %struct.gvplugin_active_render_s, ptr %6, i32 0, i32 0
  %8 = load ptr, ptr %7, align 8, !tbaa !51
  store ptr %8, ptr %3, align 8, !tbaa !58
  call void @llvm.lifetime.start.p0(i64 4, ptr %4) #15
  store i32 0, ptr %4, align 4, !tbaa !59
  %9 = load ptr, ptr %3, align 8, !tbaa !58
  %10 = icmp ne ptr %9, null
  br i1 %10, label %11, label %18

11:                                               ; preds = %1
  %12 = load ptr, ptr %2, align 8, !tbaa !3
  %13 = getelementptr inbounds nuw %struct.GVJ_s, ptr %12, i32 0, i32 15
  %14 = getelementptr inbounds nuw %struct.gvplugin_active_render_s, ptr %13, i32 0, i32 2
  %15 = load ptr, ptr %14, align 8, !tbaa !52
  %16 = getelementptr inbounds nuw %struct.gvrender_features_t, ptr %15, i32 0, i32 0
  %17 = load i32, ptr %16, align 8, !tbaa !54
  store i32 %17, ptr %4, align 4, !tbaa !59
  br label %18

18:                                               ; preds = %11, %1
  %19 = load i32, ptr %4, align 4, !tbaa !59
  call void @llvm.lifetime.end.p0(i64 4, ptr %4) #15
  call void @llvm.lifetime.end.p0(i64 8, ptr %3) #15
  ret i32 %19
}